; ModuleID = 'source-C-CXX/10/873.c'
source_filename = "source-C-CXX/10/873.c"
target datalayout = "e-m:e-p270:32:32-p271:32:32-p272:64:64-i64:64-f80:128-n8:16:32:64-S128"
target triple = "x86_64-pc-linux-gnu"

@.str = private unnamed_addr constant [7 x i8] c"%d%d%d\00", align 1
@.str.1 = private unnamed_addr constant [3 x i8] c"%d\00", align 1

; Function Attrs: nofree nounwind sspstrong uwtable
define dso_local i32 @main() local_unnamed_addr #0 {
  %1 = alloca i32, align 4
  %2 = alloca i32, align 4
  %3 = alloca i32, align 4
  %4 = bitcast i32* %1 to i8*
  call void @llvm.lifetime.start.p0i8(i64 4, i8* nonnull %4) #3
  %5 = bitcast i32* %2 to i8*
  call void @llvm.lifetime.start.p0i8(i64 4, i8* nonnull %5) #3
  %6 = bitcast i32* %3 to i8*
  call void @llvm.lifetime.start.p0i8(i64 4, i8* nonnull %6) #3
  %7 = call i32 (i8*, ...) @__isoc99_scanf(i8* getelementptr inbounds ([7 x i8], [7 x i8]* @.str, i64 0, i64 0), i32* nonnull %1, i32* nonnull %2, i32* nonnull %3)
  %8 = load i32, i32* %2, align 4, !tbaa !5
  %9 = icmp eq i32 %8, 1
  %10 = load i32, i32* %3, align 4
  %11 = select i1 %9, i32 %10, i32 undef
  %12 = icmp eq i32 %8, 2
  %13 = add nsw i32 %10, 31
  %14 = select i1 %12, i32 %13, i32 %11
  %15 = icmp eq i32 %8, 3
  %16 = add nsw i32 %10, 59
  %17 = select i1 %15, i32 %16, i32 %14
  %18 = icmp eq i32 %8, 4
  %19 = add nsw i32 %10, 90
  %20 = select i1 %18, i32 %19, i32 %17
  %21 = icmp eq i32 %8, 5
  %22 = add nsw i32 %10, 120
  %23 = select i1 %21, i32 %22, i32 %20
  %24 = icmp eq i32 %8, 6
  %25 = add nsw i32 %10, 151
  %26 = select i1 %24, i32 %25, i32 %23
  %27 = icmp eq i32 %8, 7
  %28 = add nsw i32 %10, 181
  %29 = select i1 %27, i32 %28, i32 %26
  %30 = icmp eq i32 %8, 8
  %31 = add nsw i32 %10, 212
  %32 = select i1 %30, i32 %31, i32 %29
  %33 = icmp eq i32 %8, 9
  %34 = add nsw i32 %10, 243
  %35 = select i1 %33, i32 %34, i32 %32
  %36 = icmp eq i32 %8, 10
  %37 = add nsw i32 %10, 273
  %38 = select i1 %36, i32 %37, i32 %35
  %39 = icmp eq i32 %8, 11
  %40 = add nsw i32 %10, 304
  %41 = select i1 %39, i32 %40, i32 %38
  %42 = icmp eq i32 %8, 12
  %43 = add nsw i32 %10, 334
  %44 = select i1 %42, i32 %43, i32 %41
  %45 = load i32, i32* %1, align 4, !tbaa !5
  %46 = srem i32 %45, 100
  %47 = icmp eq i32 %46, 0
  br i1 %47, label %48, label %56

48:                                               ; preds = %0
  %49 = srem i32 %45, 400
  %50 = icmp eq i32 %49, 0
  br i1 %50, label %51, label %64

51:                                               ; preds = %48
  %52 = add i32 %8, -1
  %53 = icmp ugt i32 %52, 1
  %54 = zext i1 %53 to i32
  %55 = add nsw i32 %44, %54
  br label %64

56:                                               ; preds = %0
  %57 = and i32 %45, 3
  %58 = icmp eq i32 %57, 0
  br i1 %58, label %59, label %64

59:                                               ; preds = %56
  %60 = add i32 %8, -1
  %61 = icmp ugt i32 %60, 1
  %62 = zext i1 %61 to i32
  %63 = add nsw i32 %44, %62
  br label %64

64:                                               ; preds = %59, %51, %56, %48
  %65 = phi i32 [ %44, %48 ], [ %44, %56 ], [ %55, %51 ], [ %63, %59 ]
  %66 = call i32 (i8*, ...) @printf(i8* nonnull dereferenceable(1) getelementptr inbounds ([3 x i8], [3 x i8]* @.str.1, i64 0, i64 0), i32 %65)
  call void @llvm.lifetime.end.p0i8(i64 4, i8* nonnull %6) #3
  call void @llvm.lifetime.end.p0i8(i64 4, i8* nonnull %5) #3
  call void @llvm.lifetime.end.p0i8(i64 4, i8* nonnull %4) #3
  ret i32 0
}

; Function Attrs: argmemonly mustprogress nofree nosync nounwind willreturn
declare void @llvm.lifetime.start.p0i8(i64 immarg, i8* nocapture) #1

; Function Attrs: nofree nounwind
declare noundef i32 @__isoc99_scanf(i8* nocapture noundef readonly, ...) local_unnamed_addr #2

; Function Attrs: nofree nounwind
declare noundef i32 @printf(i8* nocapture noundef readonly, ...) local_unnamed_addr #2

; Function Attrs: argmemonly mustprogress nofree nosync nounwind willreturn
declare void @llvm.lifetime.end.p0i8(i64 immarg, i8* nocapture) #1


!llvm.module.flags = !{!0, !1, !2, !3}
!llvm.ident = !{!4}

!0 = !{i32 1, !"wchar_size", i32 4}
!1 = !{i32 7, !"PIC Level", i32 2}
!2 = !{i32 7, !"PIE Level", i32 2}
!3 = !{i32 7, !"uwtable", i32 1}
!4 = !{!"clang version 13.0.0"}
!5 = !{!6, !6, i64 0}
!6 = !{!"int", !7, i64 0}
!7 = !{!"omnipotent char", !8, i64 0}
!8 = !{!"Simple C/C++ TBAA"}
